target datalayout = "e-m:e-p270:32:32-p271:32:32-p272:64:64-i64:64-i128:128-f80:128-n8:16:32:64-S128"
target triple = "x86_64-pc-linux-gnu"

@wal_segment_size = dso_local global i32 16777216, align 4
@UsableBytesInSegment = internal global i32 0, align 4

; Function Attrs: nounwind uwtable
define internal i64 @XLogBytePosToRecPtr(i64 noundef %0) #0 {
  %2 = alloca i64, align 8
  %3 = alloca i64, align 8
  %4 = alloca i64, align 8
  %5 = alloca i64, align 8
  %6 = alloca i32, align 4
  %7 = alloca i64, align 8
  store i64 %0, ptr %2, align 8
  call void @llvm.lifetime.start.p0(i64 8, ptr %3) #16
  call void @llvm.lifetime.start.p0(i64 8, ptr %4) #16
  call void @llvm.lifetime.start.p0(i64 8, ptr %5) #16
  call void @llvm.lifetime.start.p0(i64 4, ptr %6) #16
  call void @llvm.lifetime.start.p0(i64 8, ptr %7) #16
  %8 = load i64, ptr %2, align 8
  %9 = load i32, ptr @UsableBytesInSegment, align 4
  %10 = sext i32 %9 to i64
  %11 = udiv i64 %8, %10
  store i64 %11, ptr %3, align 8
  %12 = load i64, ptr %2, align 8
  %13 = load i32, ptr @UsableBytesInSegment, align 4
  %14 = sext i32 %13 to i64
  %15 = urem i64 %12, %14
  store i64 %15, ptr %5, align 8
  %16 = load i64, ptr %5, align 8
  %17 = icmp ult i64 %16, 8152
  br i1 %17, label %18, label %22

18:                                               ; preds = %1
  %19 = load i64, ptr %5, align 8
  %20 = add i64 %19, 40
  %21 = trunc i64 %20 to i32
  store i32 %21, ptr %6, align 4
  br label %38

22:                                               ; preds = %1
  store i32 8192, ptr %6, align 4
  %23 = load i64, ptr %5, align 8
  %24 = sub i64 %23, 8152
  store i64 %24, ptr %5, align 8
  %25 = load i64, ptr %5, align 8
  %26 = udiv i64 %25, 8168
  store i64 %26, ptr %4, align 8
  %27 = load i64, ptr %5, align 8
  %28 = urem i64 %27, 8168
  store i64 %28, ptr %5, align 8
  %29 = load i64, ptr %4, align 8
  %30 = mul i64 %29, 8192
  %31 = load i64, ptr %5, align 8
  %32 = add i64 %30, %31
  %33 = add i64 %32, 24
  %34 = load i32, ptr %6, align 4
  %35 = zext i32 %34 to i64
  %36 = add i64 %35, %33
  %37 = trunc i64 %36 to i32
  store i32 %37, ptr %6, align 4
  br label %38

38:                                               ; preds = %22, %18
  %39 = load i64, ptr %3, align 8
  %40 = load i32, ptr @wal_segment_size, align 4
  %41 = sext i32 %40 to i64
  %42 = mul i64 %39, %41
  %43 = load i32, ptr %6, align 4
  %44 = zext i32 %43 to i64
  %45 = add i64 %42, %44
  store i64 %45, ptr %7, align 8
  %46 = load i64, ptr %7, align 8
  call void @llvm.lifetime.end.p0(i64 8, ptr %7) #16
  call void @llvm.lifetime.end.p0(i64 4, ptr %6) #16
  call void @llvm.lifetime.end.p0(i64 8, ptr %5) #16
  call void @llvm.lifetime.end.p0(i64 8, ptr %4) #16
  call void @llvm.lifetime.end.p0(i64 8, ptr %3) #16
  ret i64 %46
}