; Function Attrs: mustprogress nofree norecurse nosync nounwind willreturn memory(read, argmem: none, inaccessiblemem: none) uwtable
define internal fastcc i64 @XLogBytePosToRecPtr(i64 noundef %0) unnamed_addr #9 {
  %2 = load i32, ptr @UsableBytesInSegment, align 4
  %3 = sext i32 %2 to i64
  %4 = urem i64 %0, %3
  %5 = udiv i64 %0, %3
  %6 = icmp ult i64 %4, 8152
  br i1 %6, label %7, label %9

7:                                                ; preds = %1
  %8 = add nuw nsw i64 %4, 40
  br label %16

9:                                                ; preds = %1
  %10 = add i64 %4, -8152
  %11 = udiv i64 %10, 8168
  %12 = urem i64 %10, 8168
  %13 = shl i64 %11, 13
  %14 = add nuw nsw i64 %12, 8216
  %15 = add i64 %14, %13
  br label %16

16:                                               ; preds = %9, %7
  %.0 = phi i64 [ %8, %7 ], [ %15, %9 ]
  %17 = load i32, ptr @wal_segment_size, align 4
  %18 = sext i32 %17 to i64
  %19 = mul i64 %5, %18
  %20 = and i64 %.0, 4294967295
  %21 = add i64 %19, %20
  ret i64 %21
}